target datalayout = "e-m:e-p270:32:32-p271:32:32-p272:64:64-i64:64-i128:128-f80:128-n8:16:32:64-S128"
target triple = "x86_64-pc-linux-gnu"

%struct._GtkTreeIter = type { i32, ptr, ptr, ptr }

; Function Attrs: nounwind uwtable
define internal i32 @_search_func(ptr noundef %0, i32 noundef %1, ptr noundef %2, ptr noundef %3, ptr noundef %4) #0 {
  %6 = alloca i32, align 4
  %7 = alloca ptr, align 8
  %8 = alloca i32, align 4
  %9 = alloca ptr, align 8
  %10 = alloca ptr, align 8
  %11 = alloca ptr, align 8
  %12 = alloca ptr, align 8
  %13 = alloca ptr, align 8
  %14 = alloca ptr, align 8
  %15 = alloca ptr, align 8
  %16 = alloca i32, align 4
  %17 = alloca ptr, align 8
  %18 = alloca i32, align 4
  %19 = alloca %struct._GtkTreeIter, align 8
  store ptr %0, ptr %7, align 8, !tbaa !146
  store i32 %1, ptr %8, align 4, !tbaa !57
  store ptr %2, ptr %9, align 8, !tbaa !73
  store ptr %3, ptr %10, align 8, !tbaa !148
  store ptr %4, ptr %11, align 8, !tbaa !61
  call void @llvm.lifetime.start.p0(i64 8, ptr %12) #10
  %20 = load ptr, ptr %9, align 8, !tbaa !73
  %21 = call noalias ptr @g_utf8_casefold(ptr noundef %20, i64 noundef -1)
  store ptr %21, ptr %12, align 8, !tbaa !73
  call void @llvm.lifetime.start.p0(i64 8, ptr %13) #10
  store ptr null, ptr %13, align 8, !tbaa !73
  %22 = load ptr, ptr %7, align 8, !tbaa !146
  %23 = load ptr, ptr %10, align 8, !tbaa !148
  call void (ptr, ptr, ...) @gtk_tree_model_get(ptr noundef %22, ptr noundef %23, i32 noundef 4, ptr noundef %13, i32 noundef -1)
  call void @llvm.lifetime.start.p0(i64 8, ptr %14) #10
  %24 = load ptr, ptr %13, align 8, !tbaa !73
  %25 = call noalias ptr @g_utf8_casefold(ptr noundef %24, i64 noundef -1)
  store ptr %25, ptr %14, align 8, !tbaa !73
  %26 = load ptr, ptr %13, align 8, !tbaa !73
  call void @g_free(ptr noundef %26)
  %27 = load ptr, ptr %7, align 8, !tbaa !146
  %28 = load ptr, ptr %10, align 8, !tbaa !148
  call void (ptr, ptr, ...) @gtk_tree_model_get(ptr noundef %27, ptr noundef %28, i32 noundef 2, ptr noundef %13, i32 noundef -1)
  call void @llvm.lifetime.start.p0(i64 8, ptr %15) #10
  %29 = load ptr, ptr %13, align 8, !tbaa !73
  %30 = call noalias ptr @g_utf8_casefold(ptr noundef %29, i64 noundef -1)
  store ptr %30, ptr %15, align 8, !tbaa !73
  %31 = load ptr, ptr %13, align 8, !tbaa !73
  call void @g_free(ptr noundef %31)
  call void @llvm.lifetime.start.p0(i64 4, ptr %16) #10
  %32 = load ptr, ptr %14, align 8, !tbaa !73
  %33 = icmp ne ptr %32, null
  br i1 %33, label %34, label %39

34:                                               ; preds = %5
  %35 = load ptr, ptr %14, align 8, !tbaa !73
  %36 = load ptr, ptr %12, align 8, !tbaa !73
  %37 = call ptr @strstr(ptr noundef %35, ptr noundef %36) #12
  %38 = icmp ne ptr %37, null
  br i1 %38, label %49, label %39

39:                                               ; preds = %34, %5
  %40 = load ptr, ptr %15, align 8, !tbaa !73
  %41 = icmp ne ptr %40, null
  br i1 %41, label %42, label %47

42:                                               ; preds = %39
  %43 = load ptr, ptr %15, align 8, !tbaa !73
  %44 = load ptr, ptr %12, align 8, !tbaa !73
  %45 = call ptr @strstr(ptr noundef %43, ptr noundef %44) #12
  %46 = icmp ne ptr %45, null
  br label %47

47:                                               ; preds = %42, %39
  %48 = phi i1 [ false, %39 ], [ %46, %42 ]
  br label %49

49:                                               ; preds = %47, %34
  %50 = phi i1 [ true, %34 ], [ %48, %47 ]
  %51 = xor i1 %50, true
  %52 = zext i1 %51 to i32
  store i32 %52, ptr %16, align 4, !tbaa !57
  %53 = load ptr, ptr %14, align 8, !tbaa !73
  call void @g_free(ptr noundef %53)
  %54 = load ptr, ptr %15, align 8, !tbaa !73
  call void @g_free(ptr noundef %54)
  %55 = load ptr, ptr %12, align 8, !tbaa !73
  call void @g_free(ptr noundef %55)
  %56 = load i32, ptr %16, align 4, !tbaa !57
  %57 = icmp ne i32 %56, 0
  br i1 %57, label %67, label %58

58:                                               ; preds = %49
  call void @llvm.lifetime.start.p0(i64 8, ptr %17) #10
  %59 = load ptr, ptr %7, align 8, !tbaa !146
  %60 = load ptr, ptr %10, align 8, !tbaa !148
  %61 = call ptr @gtk_tree_model_get_path(ptr noundef %59, ptr noundef %60)
  store ptr %61, ptr %17, align 8, !tbaa !156
  %62 = load ptr, ptr %11, align 8, !tbaa !61
  %63 = call i64 @gtk_tree_view_get_type() #11
  %64 = call ptr @g_type_check_instance_cast(ptr noundef %62, i64 noundef %63)
  %65 = load ptr, ptr %17, align 8, !tbaa !156
  call void @gtk_tree_view_expand_to_path(ptr noundef %64, ptr noundef %65)
  %66 = load ptr, ptr %17, align 8, !tbaa !156
  call void @gtk_tree_path_free(ptr noundef %66)
  store i32 0, ptr %6, align 4
  store i32 1, ptr %18, align 4
  call void @llvm.lifetime.end.p0(i64 8, ptr %17) #10
  br label %85

67:                                               ; preds = %49
  call void @llvm.lifetime.start.p0(i64 32, ptr %19) #10
  %68 = load ptr, ptr %7, align 8, !tbaa !146
  %69 = load ptr, ptr %10, align 8, !tbaa !148
  %70 = call i32 @gtk_tree_model_iter_children(ptr noundef %68, ptr noundef %19, ptr noundef %69)
  %71 = icmp ne i32 %70, 0
  br i1 %71, label %72, label %84

72:                                               ; preds = %67
  br label %73

73:                                               ; preds = %79, %72
  %74 = load ptr, ptr %7, align 8, !tbaa !146
  %75 = load i32, ptr %8, align 4, !tbaa !57
  %76 = load ptr, ptr %9, align 8, !tbaa !73
  %77 = load ptr, ptr %11, align 8, !tbaa !61
  %78 = call i32 @_search_func(ptr noundef %74, i32 noundef %75, ptr noundef %76, ptr noundef %19, ptr noundef %77)
  br label %79

79:                                               ; preds = %73
  %80 = load ptr, ptr %7, align 8, !tbaa !146
  %81 = call i32 @gtk_tree_model_iter_next(ptr noundef %80, ptr noundef %19)
  %82 = icmp ne i32 %81, 0
  br i1 %82, label %73, label %83

83:                                               ; preds = %79
  br label %84

84:                                               ; preds = %83, %67
  store i32 1, ptr %6, align 4
  store i32 1, ptr %18, align 4
  call void @llvm.lifetime.end.p0(i64 32, ptr %19) #10
  br label %85

85:                                               ; preds = %84, %58
  call void @llvm.lifetime.end.p0(i64 4, ptr %16) #10
  call void @llvm.lifetime.end.p0(i64 8, ptr %15) #10
  call void @llvm.lifetime.end.p0(i64 8, ptr %14) #10
  call void @llvm.lifetime.end.p0(i64 8, ptr %13) #10
  call void @llvm.lifetime.end.p0(i64 8, ptr %12) #10
  %86 = load i32, ptr %6, align 4
  ret i32 %86
}