; Function Attrs: nounwind uwtable
define internal range(i32 0, 2) i32 @_search_func(ptr noundef %0, i32 noundef %1, ptr noundef %2, ptr noundef %3, ptr noundef %4) #0 {
  %6 = alloca ptr, align 8
  %7 = alloca %struct._GtkTreeIter, align 8
  %8 = tail call noalias ptr @g_utf8_casefold(ptr noundef %2, i64 noundef -1) #12
  call void @llvm.lifetime.start.p0(i64 8, ptr nonnull %6) #12
  store ptr null, ptr %6, align 8, !tbaa !75
  call void (ptr, ptr, ...) @gtk_tree_model_get(ptr noundef %0, ptr noundef %3, i32 noundef 4, ptr noundef nonnull %6, i32 noundef -1) #12
  %9 = load ptr, ptr %6, align 8, !tbaa !75
  %10 = call noalias ptr @g_utf8_casefold(ptr noundef %9, i64 noundef -1) #12
  %11 = load ptr, ptr %6, align 8, !tbaa !75
  call void @g_free(ptr noundef %11) #12
  call void (ptr, ptr, ...) @gtk_tree_model_get(ptr noundef %0, ptr noundef %3, i32 noundef 2, ptr noundef nonnull %6, i32 noundef -1) #12
  %12 = load ptr, ptr %6, align 8, !tbaa !75
  %13 = call noalias ptr @g_utf8_casefold(ptr noundef %12, i64 noundef -1) #12
  %14 = load ptr, ptr %6, align 8, !tbaa !75
  call void @g_free(ptr noundef %14) #12
  %.not = icmp eq ptr %10, null
  br i1 %.not, label %17, label %15

15:                                               ; preds = %5
  %16 = call ptr @strstr(ptr noundef nonnull dereferenceable(1) %10, ptr noundef nonnull dereferenceable(1) %8) #14
  %.not29 = icmp eq ptr %16, null
  br i1 %.not29, label %17, label %.critedge

17:                                               ; preds = %15, %5
  %.not30 = icmp eq ptr %13, null
  br i1 %.not30, label %.critedge34, label %18

18:                                               ; preds = %17
  %19 = call ptr @strstr(ptr noundef nonnull dereferenceable(1) %13, ptr noundef nonnull dereferenceable(1) %8) #14
  %20 = icmp eq ptr %19, null
  call void @g_free(ptr noundef %10) #12
  call void @g_free(ptr noundef nonnull %13) #12
  call void @g_free(ptr noundef nonnull %8) #12
  br i1 %20, label %25, label %21

.critedge:                                        ; preds = %15
  call void @g_free(ptr noundef nonnull %10) #12
  call void @g_free(ptr noundef %13) #12
  call void @g_free(ptr noundef nonnull %8) #12
  br label %21

21:                                               ; preds = %.critedge, %18
  %22 = call ptr @gtk_tree_model_get_path(ptr noundef %0, ptr noundef %3) #12
  %23 = tail call i64 @gtk_tree_view_get_type() #13
  %24 = call ptr @g_type_check_instance_cast(ptr noundef %4, i64 noundef %23) #12
  call void @gtk_tree_view_expand_to_path(ptr noundef %24, ptr noundef %22) #12
  call void @gtk_tree_path_free(ptr noundef %22) #12
  br label %29

.critedge34:                                      ; preds = %17
  call void @g_free(ptr noundef %10) #12
  call void @g_free(ptr noundef null) #12
  call void @g_free(ptr noundef %8) #12
  br label %25

25:                                               ; preds = %.critedge34, %18
  call void @llvm.lifetime.start.p0(i64 32, ptr nonnull %7) #12
  %26 = call i32 @gtk_tree_model_iter_children(ptr noundef %0, ptr noundef nonnull %7, ptr noundef %3) #12
  %.not31 = icmp eq i32 %26, 0
  br i1 %.not31, label %.loopexit, label %.preheader

.preheader:                                       ; preds = %25, %.preheader
  %27 = call i32 @_search_func(ptr noundef %0, i32 noundef %1, ptr noundef %2, ptr noundef nonnull %7, ptr noundef %4)
  %28 = call i32 @gtk_tree_model_iter_next(ptr noundef %0, ptr noundef nonnull %7) #12
  %.not32 = icmp eq i32 %28, 0
  br i1 %.not32, label %.loopexit, label %.preheader

.loopexit:                                        ; preds = %.preheader, %25
  call void @llvm.lifetime.end.p0(i64 32, ptr nonnull %7) #12
  br label %29

29:                                               ; preds = %.loopexit, %21
  %.0 = phi i32 [ 1, %.loopexit ], [ 0, %21 ]
  call void @llvm.lifetime.end.p0(i64 8, ptr nonnull %6) #12
  ret i32 %.0
}